(dp1
I0
S'UNK'
p2
sI1
V\u09aa\u09cd\u09b0\u09a7\u09be\u09a8\u09ae\u09a8\u09cd\u09a4\u09cd\u09b0\u09c0
p3
sI2
V\u0995\u09c1\u09df\u09c7\u09a4\u09c7\u09b0
p4
sI3
V\u09b6\u09c7\u0996
p5
sI4
V\u098f\u0995\u099f\u09bf
p6
sI5
V\u09a6\u09c7\u09a8
p7
sI6
V\u0993
sI7
V\u09b8\u09be\u09b2\u09be\u09ae
p8
sI8
V\u09b8\u09ae\u09df
p9
sI9
V\u09aa\u09b0\u09bf\u099a\u09df
p10
sI10
V\u09b9\u09be\u09b8\u09bf\u09a8\u09be
p11
sI11
V\u098f
sI12
V\u09a4\u09be\u0981\u09b0
p12
sI13
V\u09b8\u09ab\u09b0\u09b8\u0999\u09cd\u0997\u09c0\u09a6\u09c7\u09b0
p13
sI14
V\u099c\u09be\u09ac\u09c7\u09b0
p14
sI15
V\u0995\u09b0\u09bf\u09df\u09c7
p15
sI16
V\u09b9\u09df
p16
sI17
V\u0997\u09be\u09b0\u09cd\u09a1
p17
sI18
V\u09aa\u09cd\u09b0\u09a7\u09be\u09a8\u09ae\u09a8\u09cd\u09a4\u09cd\u09b0\u09c0\u0995\u09c7
p18
sI19
V\u09b8\u0999\u09cd\u0997\u09c7
p19
sI20
V\u098f\u09ac\u0982
p20
sI21
V\u098f\u09b0\u09aa\u09b0
p21
sI22
V\u099c\u09be\u09ac\u09c7\u09b0\u0995\u09c7
p22
sI23
V\u0995\u09b0\u09c7
p23
sI24
V\u09a4\u09c7\u09be\u09a1\u09bc\u09be
p24
sI25
V\u09ab\u09c1\u09b2\u09c7\u09b0
p25
sI26
V\u09ae\u09a8\u09cd\u09a4\u09cd\u09b0\u09bf\u09b8\u09ad\u09be\u09b0
p26
sI27
V\u0986\u09b2-\u09ae\u09c1\u09ac\u09be\u09b0\u0995
p27
sI28
V\u09b8\u09c1\u09b8\u099c\u09cd\u099c\u09bf\u09a4
p28
sI29
V\u09a4\u09bf\u09a8
p29
sI30
V\u09ae\u099e\u09cd\u099a\u09c7
p30
sI31
V\u09aa\u09b0\u09bf\u09ac\u09c7\u09b6\u09bf\u09a4
p31
sI32
V\u09b9\u09be\u09b8\u09bf\u09a8\u09be\u09b0
p32
sI33
V\u0985\u09a8\u09cd\u09af\u09be\u09a8\u09cd\u09af
p33
sI34
V\u09a2\u09be\u0995\u09be\u09df
p34
sI35
V\u09a4\u09be\u0981\u0995\u09c7
p35
sI36
V\u09b9\u099c\u09b0\u09a4
p36
sI37
V\u09ac\u09be\u0982\u09b2\u09be\u09a6\u09c7\u09b6\u09c7\u09b0
p37
sI38
V\u09ae\u09bf\u09a8\u09bf\u099f\u09c7
p38
sI39
V\u09aa\u09cd\u09b0\u09a7\u09be\u09a8\u09ae\u09a8\u09cd\u09a4\u09cd\u09b0\u09c0\u0993
p39
sI40
V\u0986\u09b2-\u09b9\u09be\u09ae\u09be\u09a6
p40
sI41
V\u0995\u09be\u099b\u09c7
p41
sI42
V\u0986\u099c
p42
sI43
V\u09ad\u09bf\u09ad\u09bf\u0986\u0987\u09aa\u09bf
p43
sI44
V\u09a8\u09bf\u09df\u09c7
p44
sI45
V\u09b0\u09be\u09b7\u09cd\u099f\u09cd\u09b0\u09c0\u09df
p45
sI46
V\u09b8\u09c7\u0996\u09be\u09a8\u09c7
p46
sI47
V\u09ac\u09bf\u09b6\u09bf\u09b7\u09cd\u099f\u099c\u09a8\u09c7\u09b0
p47
sI48
V\u09ac\u09bf\u09ae\u09be\u09a8\u09ac\u09a8\u09cd\u09a6\u09b0\u09c7\u09b0
p48
sI49
V\u09a6\u09b2
p49
sI50
V\u09b2\u09be\u09b2
p50
sI51
V\u09b8\u0982\u0997\u09c0\u09a4
p51
sI52
V\u09aa\u09cd\u09b0\u09a6\u09be\u09a8
p52
sI53
V\u09b8\u09a6\u09b8\u09cd\u09af\u09a6\u09c7\u09b0
p53
sI54
V\u0985\u09ac
p54
sI55
V\u09aa\u09b0\u09bf\u09a6\u09b0\u09cd\u09b6\u09a8
p55
sI56
V\u09eb\u099f\u09be
p56
sI57
V\u09b8\u09cd\u09a5\u09be\u09aa\u09bf\u09a4
p57
sI58
V\u09a6\u09c7\u09b6\u09c7\u09b0
p58
sI59
V\u09ac\u09bf\u09ae\u09be\u09a8\u09ac\u09a8\u09cd\u09a6\u09b0\u09c7
p59
sI60
V\u09aa\u09b0\u09c7
p60
sI61
V\u09ac\u09bf\u0995\u09c7\u09b2
p61
sI62
V\u09ae\u0999\u09cd\u0997\u09b2\u09ac\u09be\u09b0
p62
sI63
V\u09ac\u09bf\u09ae\u09be\u09a8
p63
sI64
V\u09a6\u09c7\u0993\u09df\u09be
p64
sI65
V\u09a6\u09bf\u09a8\u09c7\u09b0
p65
sI66
V\u09a6\u09c1\u0987
p66
sI67
V\u0997\u09cd\u09b0\u09b9\u09a3
p67
sI68
V\u09ac\u09bf\u09ae\u09be\u09a8\u09ac\u09be\u09b9\u09bf\u09a8\u09c0\u09b0
p68
sI69
V\u09b6\u09bf\u09b6\u09c1
p69
sI70
V\u09ef
sI71
V\u099c\u09be\u09a4\u09c0\u09df
p70
sI72
V\u09b6\u09be\u09b9\u099c\u09be\u09b2\u09be\u09b2
p71
sI73
V\u09a8\u09c7\u09d7\u09ac\u09be\u09b9\u09bf\u09a8\u09c0
p72
sI74
V\u0997\u09be\u09b2\u09bf\u099a\u09be
p73
sI75
V\u0995\u09b0\u09c7\u09a8
p74
sI76
V\u0985\u09a8\u09be\u09b0
p75
sI77
V\u09b9\u09df\u09c7\u099b\u09c7
p76
sI78
V\u0986\u09b2-\u09b8\u09be\u09ac\u09be\u09b9
p77
sI79
V\u0985\u09ac\u09a4\u09b0\u09a3
p78
sI80
V\u09b8\u0982\u09ac\u09b0\u09cd\u09a7\u09a8\u09be
p79
sI81
V\u099f\u09be\u09b0\u09ae\u09be\u0995\u09c7\u09b0
p80
sI82
V\u0986\u09b2-\u09ae\u09c1\u09ac\u09be\u09b0\u0995\u0995\u09c7
p81
sI83
V\u098f\u09b8\u09c7\u099b\u09c7\u09a8
p82
sI84
V\u09af\u09be\u0993\u09df\u09be
p83
sI85
V\u099b\u09c7\u09be\u099f\u09cd\u099f
p84
sI86
V\u09ac\u09b9\u09a8\u0995\u09be\u09b0\u09c0
p85
sI87
V\u09ac\u09bf\u09b6\u09c7\u09b7
p86
sI88
V\u09b8\u09c7\u09a8\u09be\u09ac\u09be\u09b9\u09bf\u09a8\u09c0,
p87
sI89
V\u09ac\u09be\u0982\u09b2\u09be\u09a6\u09c7\u09b6
p88
sI90
V\u099c\u09be\u09a8\u09be\u09a8
p89
sI91
V\u0986\u09a8\u09cd\u09a4\u09b0\u09cd\u099c\u09be\u09a4\u09bf\u0995
p90
sI92
V\u09b8\u09ab\u09b0\u09c7
p91
sI93
V\u09b8\u09cd\u09ac\u09be\u0997\u09a4
p92
sI94
V\u0989\u09aa\u09b9\u09be\u09b0
p93
s.